target datalayout = "e-m:e-p270:32:32-p271:32:32-p272:64:64-i64:64-i128:128-f80:128-n8:16:32:64-S128"
target triple = "x86_64-pc-linux-gnu"

%"struct.faiss::Index" = type <{ ptr, i32, [4 x i8], i64, i8, i8, [2 x i8], i32, float, [4 x i8] }>
%"struct.faiss::IndexAdditiveQuantizerFastScan" = type { %"struct.faiss::IndexFastScan", ptr, i8, i32, i64 }
%"struct.faiss::IndexFastScan" = type { %"struct.faiss::Index.base", i32, i32, i32, i32, i64, i64, i64, i64, i64, i64, %"struct.faiss::AlignedTable", ptr }
%"struct.faiss::Index.base" = type <{ ptr, i32, [4 x i8], i64, i8, i8, [2 x i8], i32, float }>
%"struct.faiss::AlignedTable" = type { %"struct.faiss::AlignedTableTightAlloc", i64 }
%"struct.faiss::AlignedTableTightAlloc" = type { ptr, i64 }
%"struct.faiss::AdditiveQuantizer" = type <{ %"struct.faiss::Quantizer", i64, %"class.std::vector", %"class.std::vector.3", %"class.std::vector", i64, i64, i64, i8, i8, i8, [5 x i8], %"class.std::vector.3", %"struct.faiss::IndexFlat1D", %"class.std::vector.3", %"class.std::vector.3", i64, i32, float, float, [4 x i8] }>
%"struct.faiss::Quantizer" = type { ptr, i64, i64 }
%"class.std::vector" = type { %"struct.std::_Vector_base" }
%"struct.std::_Vector_base" = type { %"struct.std::_Vector_base<unsigned long, std::allocator<unsigned long>>::_Vector_impl" }
%"struct.std::_Vector_base<unsigned long, std::allocator<unsigned long>>::_Vector_impl" = type { %"struct.std::_Vector_base<unsigned long, std::allocator<unsigned long>>::_Vector_impl_data" }
%"struct.std::_Vector_base<unsigned long, std::allocator<unsigned long>>::_Vector_impl_data" = type { ptr, ptr, ptr }
%"struct.faiss::IndexFlat1D" = type { %"struct.faiss::IndexFlatL2", i8, %"class.std::vector.13" }
%"struct.faiss::IndexFlatL2" = type { %"struct.faiss::IndexFlat", %"class.std::vector.3" }
%"struct.faiss::IndexFlat" = type { %"struct.faiss::IndexFlatCodes" }
%"struct.faiss::IndexFlatCodes" = type { %"struct.faiss::Index.base", i64, %"class.std::vector.8" }
%"class.std::vector.8" = type { %"struct.std::_Vector_base.9" }
%"struct.std::_Vector_base.9" = type { %"struct.std::_Vector_base<unsigned char, std::allocator<unsigned char>>::_Vector_impl" }
%"struct.std::_Vector_base<unsigned char, std::allocator<unsigned char>>::_Vector_impl" = type { %"struct.std::_Vector_base<unsigned char, std::allocator<unsigned char>>::_Vector_impl_data" }
%"struct.std::_Vector_base<unsigned char, std::allocator<unsigned char>>::_Vector_impl_data" = type { ptr, ptr, ptr }
%"class.std::vector.13" = type { %"struct.std::_Vector_base.14" }
%"struct.std::_Vector_base.14" = type { %"struct.std::_Vector_base<long, std::allocator<long>>::_Vector_impl" }
%"struct.std::_Vector_base<long, std::allocator<long>>::_Vector_impl" = type { %"struct.std::_Vector_base<long, std::allocator<long>>::_Vector_impl_data" }
%"struct.std::_Vector_base<long, std::allocator<long>>::_Vector_impl_data" = type { ptr, ptr, ptr }
%"class.std::vector.3" = type { %"struct.std::_Vector_base.4" }
%"struct.std::_Vector_base.4" = type { %"struct.std::_Vector_base<float, std::allocator<float>>::_Vector_impl" }
%"struct.std::_Vector_base<float, std::allocator<float>>::_Vector_impl" = type { %"struct.std::_Vector_base<float, std::allocator<float>>::_Vector_impl_data" }
%"struct.std::_Vector_base<float, std::allocator<float>>::_Vector_impl_data" = type { ptr, ptr, ptr }

@.str.9 = private unnamed_addr constant [44 x i8] c"training additive quantizer on %zd vectors\0A\00", align 1

; Function Attrs: mustprogress uwtable
define void @_ZN5faiss30IndexAdditiveQuantizerFastScan5trainElPKf(ptr noundef nonnull align 8 dereferenceable(160) %0, i64 noundef %1, ptr noundef %2) unnamed_addr #1 align 2 {
  %4 = alloca ptr, align 8
  %5 = alloca i64, align 8
  %6 = alloca ptr, align 8
  %7 = alloca i32, align 4
  %8 = alloca i64, align 8
  %9 = alloca ptr, align 8
  store ptr %0, ptr %4, align 8, !tbaa !4
  store i64 %1, ptr %5, align 8, !tbaa !9
  store ptr %2, ptr %6, align 8, !tbaa !11
  %10 = load ptr, ptr %4, align 8
  %11 = getelementptr inbounds nuw %"struct.faiss::Index", ptr %10, i32 0, i32 5
  %12 = load i8, ptr %11, align 1, !tbaa !13, !range !19, !noundef !20
  %13 = trunc i8 %12 to i1
  br i1 %13, label %14, label %15

14:                                               ; preds = %3
  br label %57

15:                                               ; preds = %3
  call void @llvm.lifetime.start.p0(i64 4, ptr %7) #11
  store i32 74565, ptr %7, align 4, !tbaa !21
  call void @llvm.lifetime.start.p0(i64 8, ptr %8) #11
  %16 = load i64, ptr %5, align 8, !tbaa !9
  store i64 %16, ptr %8, align 8, !tbaa !9
  call void @llvm.lifetime.start.p0(i64 8, ptr %9) #11
  %17 = getelementptr inbounds nuw %"struct.faiss::Index", ptr %10, i32 0, i32 1
  %18 = load i32, ptr %17, align 8, !tbaa !22
  %19 = sext i32 %18 to i64
  %20 = getelementptr inbounds nuw %"struct.faiss::IndexAdditiveQuantizerFastScan", ptr %10, i32 0, i32 4
  %21 = load i64, ptr %20, align 8, !tbaa !23
  %22 = load ptr, ptr %6, align 8, !tbaa !11
  %23 = getelementptr inbounds nuw %"struct.faiss::Index", ptr %10, i32 0, i32 4
  %24 = load i8, ptr %23, align 8, !tbaa !30, !range !19, !noundef !20
  %25 = trunc i8 %24 to i1
  %26 = call noundef ptr @_ZN5faiss21fvecs_maybe_subsampleEmPmmPKfbl(i64 noundef %19, ptr noundef %8, i64 noundef %21, ptr noundef %22, i1 noundef zeroext %25, i64 noundef 74565)
  store ptr %26, ptr %9, align 8, !tbaa !11
  %27 = load i64, ptr %8, align 8, !tbaa !9
  store i64 %27, ptr %5, align 8, !tbaa !9
  %28 = getelementptr inbounds nuw %"struct.faiss::Index", ptr %10, i32 0, i32 4
  %29 = load i8, ptr %28, align 8, !tbaa !30, !range !19, !noundef !20
  %30 = trunc i8 %29 to i1
  br i1 %30, label %31, label %34

31:                                               ; preds = %15
  %32 = load i64, ptr %8, align 8, !tbaa !9
  %33 = call i32 (ptr, ...) @printf(ptr noundef @.str.9, i64 noundef %32)
  br label %34

34:                                               ; preds = %31, %15
  %35 = getelementptr inbounds nuw %"struct.faiss::Index", ptr %10, i32 0, i32 4
  %36 = load i8, ptr %35, align 8, !tbaa !30, !range !19, !noundef !20
  %37 = trunc i8 %36 to i1
  %38 = getelementptr inbounds nuw %"struct.faiss::IndexAdditiveQuantizerFastScan", ptr %10, i32 0, i32 1
  %39 = load ptr, ptr %38, align 8, !tbaa !31
  %40 = getelementptr inbounds nuw %"struct.faiss::AdditiveQuantizer", ptr %39, i32 0, i32 9
  %41 = zext i1 %37 to i8
  store i8 %41, ptr %40, align 1, !tbaa !32
  %42 = getelementptr inbounds nuw %"struct.faiss::IndexAdditiveQuantizerFastScan", ptr %10, i32 0, i32 1
  %43 = load ptr, ptr %42, align 8, !tbaa !31
  %44 = load i64, ptr %5, align 8, !tbaa !9
  %45 = load ptr, ptr %9, align 8, !tbaa !11
  %46 = load ptr, ptr %43, align 8, !tbaa !57
  %47 = getelementptr inbounds ptr, ptr %46, i64 0
  %48 = load ptr, ptr %47, align 8
  call void %48(ptr noundef nonnull align 8 dereferenceable(24) %43, i64 noundef %44, ptr noundef %45)
  %49 = getelementptr inbounds nuw %"struct.faiss::Index", ptr %10, i32 0, i32 7
  %50 = load i32, ptr %49, align 4, !tbaa !59
  %51 = icmp eq i32 %50, 1
  br i1 %51, label %52, label %55

52:                                               ; preds = %34
  %53 = load i64, ptr %5, align 8, !tbaa !9
  %54 = load ptr, ptr %9, align 8, !tbaa !11
  call void @_ZN5faiss30IndexAdditiveQuantizerFastScan19estimate_norm_scaleElPKf(ptr noundef nonnull align 8 dereferenceable(160) %10, i64 noundef %53, ptr noundef %54)
  br label %55

55:                                               ; preds = %52, %34
  %56 = getelementptr inbounds nuw %"struct.faiss::Index", ptr %10, i32 0, i32 5
  store i8 1, ptr %56, align 1, !tbaa !13
  call void @llvm.lifetime.end.p0(i64 8, ptr %9) #11
  call void @llvm.lifetime.end.p0(i64 8, ptr %8) #11
  call void @llvm.lifetime.end.p0(i64 4, ptr %7) #11
  br label %57

57:                                               ; preds = %55, %14
  ret void
}