; Function Attrs: mustprogress uwtable
define void @_ZN5faiss30IndexAdditiveQuantizerFastScan5trainElPKf(ptr noundef nonnull align 8 dereferenceable(160) %0, i64 noundef %1, ptr noundef %2) unnamed_addr #1 align 2 {
  %4 = alloca i64, align 8
  %5 = getelementptr inbounds nuw i8, ptr %0, i64 25
  %6 = load i8, ptr %5, align 1, !tbaa !4, !range !13, !noundef !14
  %7 = trunc nuw i8 %6 to i1
  br i1 %7, label %35, label %8

8:                                                ; preds = %3
  call void @llvm.lifetime.start.p0(i64 8, ptr nonnull %4) #14
  store i64 %1, ptr %4, align 8, !tbaa !15
  %9 = getelementptr inbounds nuw i8, ptr %0, i64 8
  %10 = load i32, ptr %9, align 8, !tbaa !16
  %11 = sext i32 %10 to i64
  %12 = getelementptr inbounds nuw i8, ptr %0, i64 152
  %13 = load i64, ptr %12, align 8, !tbaa !17
  %14 = getelementptr inbounds nuw i8, ptr %0, i64 24
  %15 = load i8, ptr %14, align 8, !tbaa !25, !range !13, !noundef !14
  %16 = trunc nuw i8 %15 to i1
  %17 = call noundef ptr @_ZN5faiss21fvecs_maybe_subsampleEmPmmPKfbl(i64 noundef %11, ptr noundef nonnull %4, i64 noundef %13, ptr noundef %2, i1 noundef zeroext %16, i64 noundef 74565)
  %18 = load i64, ptr %4, align 8, !tbaa !15
  %19 = load i8, ptr %14, align 8, !tbaa !25, !range !13, !noundef !14
  %20 = trunc nuw i8 %19 to i1
  br i1 %20, label %21, label %23

21:                                               ; preds = %8
  %22 = call i32 (ptr, ...) @printf(ptr noundef nonnull dereferenceable(1) @.str.9, i64 noundef %18)
  %.pre = load i8, ptr %14, align 8, !tbaa !25, !range !13
  br label %23

23:                                               ; preds = %21, %8
  %24 = phi i8 [ %.pre, %21 ], [ 0, %8 ]
  %25 = getelementptr inbounds nuw i8, ptr %0, i64 136
  %26 = load ptr, ptr %25, align 8, !tbaa !26
  %27 = getelementptr inbounds nuw i8, ptr %26, i64 129
  store i8 %24, ptr %27, align 1, !tbaa !27
  %28 = load ptr, ptr %26, align 8, !tbaa !53
  %29 = load ptr, ptr %28, align 8
  call void %29(ptr noundef nonnull align 8 dereferenceable(24) %26, i64 noundef %18, ptr noundef %17)
  %30 = getelementptr inbounds nuw i8, ptr %0, i64 28
  %31 = load i32, ptr %30, align 4, !tbaa !55
  %32 = icmp eq i32 %31, 1
  br i1 %32, label %33, label %34

33:                                               ; preds = %23
  call void @_ZN5faiss30IndexAdditiveQuantizerFastScan19estimate_norm_scaleElPKf(ptr noundef nonnull align 8 dereferenceable(160) %0, i64 noundef %18, ptr noundef %17)
  br label %34

34:                                               ; preds = %33, %23
  store i8 1, ptr %5, align 1, !tbaa !4
  call void @llvm.lifetime.end.p0(i64 8, ptr nonnull %4) #14
  br label %35

35:                                               ; preds = %3, %34
  ret void
}